target datalayout = "e-m:e-p270:32:32-p271:32:32-p272:64:64-i64:64-i128:128-f80:128-n8:16:32:64-S128"
target triple = "x86_64-pc-linux-gnu"

%struct.bio_st = type { ptr, ptr, ptr, i32, i32, i32, i32, i32, i32, ptr, ptr, i64, i64 }

; Function Attrs: mustprogress uwtable
define internal noundef i64 @_ZN12_GLOBAL__N_120PacketedCallbackCtrlEP6bio_stiPFlS1_iPKcillE(ptr noundef %0, i32 noundef %1, ptr noundef %2) #0 {
  %4 = alloca i64, align 8
  %5 = alloca ptr, align 8
  %6 = alloca i32, align 4
  %7 = alloca ptr, align 8
  store ptr %0, ptr %5, align 8, !tbaa !20
  store i32 %1, ptr %6, align 4, !tbaa !26
  store ptr %2, ptr %7, align 8, !tbaa !35
  %8 = load ptr, ptr %5, align 8, !tbaa !20
  %9 = getelementptr inbounds nuw %struct.bio_st, ptr %8, i32 0, i32 10
  %10 = load ptr, ptr %9, align 8, !tbaa !27
  %11 = icmp eq ptr %10, null
  br i1 %11, label %12, label %13

12:                                               ; preds = %3
  store i64 0, ptr %4, align 8
  br label %20

13:                                               ; preds = %3
  %14 = load ptr, ptr %5, align 8, !tbaa !20
  %15 = getelementptr inbounds nuw %struct.bio_st, ptr %14, i32 0, i32 10
  %16 = load ptr, ptr %15, align 8, !tbaa !27
  %17 = load i32, ptr %6, align 4, !tbaa !26
  %18 = load ptr, ptr %7, align 8, !tbaa !35
  %19 = call i64 @BIO_callback_ctrl(ptr noundef %16, i32 noundef %17, ptr noundef %18)
  store i64 %19, ptr %4, align 8
  br label %20

20:                                               ; preds = %13, %12
  %21 = load i64, ptr %4, align 8
  ret i64 %21
}