; Function Attrs: mustprogress uwtable
define internal noundef i64 @_ZN12_GLOBAL__N_120PacketedCallbackCtrlEP6bio_stiPFlS1_iPKcillE(ptr noundef readonly captures(none) %0, i32 noundef %1, ptr noundef %2) #0 {
  %4 = getelementptr inbounds nuw i8, ptr %0, i64 56
  %5 = load ptr, ptr %4, align 8, !tbaa !17
  %6 = icmp eq ptr %5, null
  br i1 %6, label %9, label %7

7:                                                ; preds = %3
  %8 = tail call i64 @BIO_callback_ctrl(ptr noundef nonnull %5, i32 noundef %1, ptr noundef %2)
  br label %9

9:                                                ; preds = %3, %7
  %.0 = phi i64 [ %8, %7 ], [ 0, %3 ]
  ret i64 %.0
}